(lp0
S'001.Affenpinscher'
p1
aS'002.Afghan_hound'
p2
aS'003.Airedale_terrier'
p3
aS'004.Akita'
p4
aS'005.Alaskan_malamute'
p5
aS'006.American_eskimo_dog'
p6
aS'007.American_foxhound'
p7
aS'008.American_staffordshire_terrier'
p8
aS'009.American_water_spaniel'
p9
aS'010.Anatolian_shepherd_dog'
p10
aS'011.Australian_cattle_dog'
p11
aS'012.Australian_shepherd'
p12
aS'013.Australian_terrier'
p13
aS'014.Basenji'
p14
aS'015.Basset_hound'
p15
aS'016.Beagle'
p16
aS'017.Bearded_collie'
p17
aS'018.Beauceron'
p18
aS'019.Bedlington_terrier'
p19
aS'020.Belgian_malinois'
p20
aS'021.Belgian_sheepdog'
p21
aS'022.Belgian_tervuren'
p22
aS'023.Bernese_mountain_dog'
p23
aS'024.Bichon_frise'
p24
aS'025.Black_and_tan_coonhound'
p25
aS'026.Black_russian_terrier'
p26
aS'027.Bloodhound'
p27
aS'028.Bluetick_coonhound'
p28
aS'029.Border_collie'
p29
aS'030.Border_terrier'
p30
aS'031.Borzoi'
p31
aS'032.Boston_terrier'
p32
aS'033.Bouvier_des_flandres'
p33
aS'034.Boxer'
p34
aS'035.Boykin_spaniel'
p35
aS'036.Briard'
p36
aS'037.Brittany'
p37
aS'038.Brussels_griffon'
p38
aS'039.Bull_terrier'
p39
aS'040.Bulldog'
p40
aS'041.Bullmastiff'
p41
aS'042.Cairn_terrier'
p42
aS'043.Canaan_dog'
p43
aS'044.Cane_corso'
p44
aS'045.Cardigan_welsh_corgi'
p45
aS'046.Cavalier_king_charles_spaniel'
p46
aS'047.Chesapeake_bay_retriever'
p47
aS'048.Chihuahua'
p48
aS'049.Chinese_crested'
p49
aS'050.Chinese_shar-pei'
p50
aS'051.Chow_chow'
p51
aS'052.Clumber_spaniel'
p52
aS'053.Cocker_spaniel'
p53
aS'054.Collie'
p54
aS'055.Curly-coated_retriever'
p55
aS'056.Dachshund'
p56
aS'057.Dalmatian'
p57
aS'058.Dandie_dinmont_terrier'
p58
aS'059.Doberman_pinscher'
p59
aS'060.Dogue_de_bordeaux'
p60
aS'061.English_cocker_spaniel'
p61
aS'062.English_setter'
p62
aS'063.English_springer_spaniel'
p63
aS'064.English_toy_spaniel'
p64
aS'065.Entlebucher_mountain_dog'
p65
aS'066.Field_spaniel'
p66
aS'067.Finnish_spitz'
p67
aS'068.Flat-coated_retriever'
p68
aS'069.French_bulldog'
p69
aS'070.German_pinscher'
p70
aS'071.German_shepherd_dog'
p71
aS'072.German_shorthaired_pointer'
p72
aS'073.German_wirehaired_pointer'
p73
aS'074.Giant_schnauzer'
p74
aS'075.Glen_of_imaal_terrier'
p75
aS'076.Golden_retriever'
p76
aS'077.Gordon_setter'
p77
aS'078.Great_dane'
p78
aS'079.Great_pyrenees'
p79
aS'080.Greater_swiss_mountain_dog'
p80
aS'081.Greyhound'
p81
aS'082.Havanese'
p82
aS'083.Ibizan_hound'
p83
aS'084.Icelandic_sheepdog'
p84
aS'085.Irish_red_and_white_setter'
p85
aS'086.Irish_setter'
p86
aS'087.Irish_terrier'
p87
aS'088.Irish_water_spaniel'
p88
aS'089.Irish_wolfhound'
p89
aS'090.Italian_greyhound'
p90
aS'091.Japanese_chin'
p91
aS'092.Keeshond'
p92
aS'093.Kerry_blue_terrier'
p93
aS'094.Komondor'
p94
aS'095.Kuvasz'
p95
aS'096.Labrador_retriever'
p96
aS'097.Lakeland_terrier'
p97
aS'098.Leonberger'
p98
aS'099.Lhasa_apso'
p99
aS'100.Lowchen'
p100
aS'101.Maltese'
p101
aS'102.Manchester_terrier'
p102
aS'103.Mastiff'
p103
aS'104.Miniature_schnauzer'
p104
aS'105.Neapolitan_mastiff'
p105
aS'106.Newfoundland'
p106
aS'107.Norfolk_terrier'
p107
aS'108.Norwegian_buhund'
p108
aS'109.Norwegian_elkhound'
p109
aS'110.Norwegian_lundehund'
p110
aS'111.Norwich_terrier'
p111
aS'112.Nova_scotia_duck_tolling_retriever'
p112
aS'113.Old_english_sheepdog'
p113
aS'114.Otterhound'
p114
aS'115.Papillon'
p115
aS'116.Parson_russell_terrier'
p116
aS'117.Pekingese'
p117
aS'118.Pembroke_welsh_corgi'
p118
aS'119.Petit_basset_griffon_vendeen'
p119
aS'120.Pharaoh_hound'
p120
aS'121.Plott'
p121
aS'122.Pointer'
p122
aS'123.Pomeranian'
p123
aS'124.Poodle'
p124
aS'125.Portuguese_water_dog'
p125
aS'126.Saint_bernard'
p126
aS'127.Silky_terrier'
p127
aS'128.Smooth_fox_terrier'
p128
aS'129.Tibetan_mastiff'
p129
aS'130.Welsh_springer_spaniel'
p130
aS'131.Wirehaired_pointing_griffon'
p131
aS'132.Xoloitzcuintli'
p132
aS'133.Yorkshire_terrier'
p133
a.